target datalayout = "e-m:e-p270:32:32-p271:32:32-p272:64:64-i64:64-i128:128-f80:128-n8:16:32:64-S128"
target triple = "x86_64-pc-linux-gnu"

%struct.parseCtx = type { ptr, ptr, i32, i32, i32, i32, i32 }

; Function Attrs: nounwind null_pointer_is_valid sspstrong uwtable
define internal zeroext i8 @parseStringField(ptr noundef %0) #2 {
  %2 = alloca i8, align 1
  %3 = alloca ptr, align 8
  %4 = alloca i8, align 1
  %5 = alloca i32, align 4
  store ptr %0, ptr %3, align 8
  br label %6

6:                                                ; preds = %258, %1
  %7 = load ptr, ptr %3, align 8
  %8 = getelementptr inbounds nuw %struct.parseCtx, ptr %7, i32 0, i32 4
  %9 = load i32, ptr %8, align 8
  %10 = load ptr, ptr %3, align 8
  %11 = getelementptr inbounds nuw %struct.parseCtx, ptr %10, i32 0, i32 3
  %12 = load i32, ptr %11, align 4
  %13 = sub i32 %12, 1
  %14 = icmp ult i32 %9, %13
  br i1 %14, label %15, label %259

15:                                               ; preds = %6
  call void @llvm.lifetime.start.p0(i64 1, ptr %4) #19
  %16 = load ptr, ptr %3, align 8
  %17 = getelementptr inbounds nuw %struct.parseCtx, ptr %16, i32 0, i32 0
  %18 = load ptr, ptr %17, align 8
  %19 = load ptr, ptr %3, align 8
  %20 = getelementptr inbounds nuw %struct.parseCtx, ptr %19, i32 0, i32 4
  %21 = load i32, ptr %20, align 8
  %22 = zext i32 %21 to i64
  %23 = getelementptr i8, ptr %18, i64 %22
  %24 = load i8, ptr %23, align 1
  store i8 %24, ptr %4, align 1
  %25 = load i8, ptr %4, align 1
  %26 = sext i8 %25 to i32
  %27 = icmp eq i32 %26, 93
  br i1 %27, label %32, label %28

28:                                               ; preds = %15
  %29 = load i8, ptr %4, align 1
  %30 = sext i8 %29 to i32
  %31 = icmp eq i32 %30, 40
  br i1 %31, label %32, label %33

32:                                               ; preds = %28, %15
  store i32 3, ptr %5, align 4
  br label %256

33:                                               ; preds = %28
  %34 = load i8, ptr %4, align 1
  %35 = sext i8 %34 to i32
  %36 = icmp eq i32 %35, 92
  br i1 %36, label %37, label %191

37:                                               ; preds = %33
  %38 = load ptr, ptr %3, align 8
  %39 = getelementptr inbounds nuw %struct.parseCtx, ptr %38, i32 0, i32 4
  %40 = load i32, ptr %39, align 8
  %41 = add i32 %40, 1
  store i32 %41, ptr %39, align 8
  %42 = load ptr, ptr %3, align 8
  %43 = getelementptr inbounds nuw %struct.parseCtx, ptr %42, i32 0, i32 0
  %44 = load ptr, ptr %43, align 8
  %45 = load ptr, ptr %3, align 8
  %46 = getelementptr inbounds nuw %struct.parseCtx, ptr %45, i32 0, i32 4
  %47 = load i32, ptr %46, align 8
  %48 = zext i32 %47 to i64
  %49 = getelementptr i8, ptr %44, i64 %48
  %50 = load i8, ptr %49, align 1
  %51 = sext i8 %50 to i32
  %52 = icmp eq i32 %51, 40
  br i1 %52, label %137, label %53

53:                                               ; preds = %37
  %54 = load ptr, ptr %3, align 8
  %55 = getelementptr inbounds nuw %struct.parseCtx, ptr %54, i32 0, i32 0
  %56 = load ptr, ptr %55, align 8
  %57 = load ptr, ptr %3, align 8
  %58 = getelementptr inbounds nuw %struct.parseCtx, ptr %57, i32 0, i32 4
  %59 = load i32, ptr %58, align 8
  %60 = zext i32 %59 to i64
  %61 = getelementptr i8, ptr %56, i64 %60
  %62 = load i8, ptr %61, align 1
  %63 = sext i8 %62 to i32
  %64 = icmp eq i32 %63, 41
  br i1 %64, label %137, label %65

65:                                               ; preds = %53
  %66 = load ptr, ptr %3, align 8
  %67 = getelementptr inbounds nuw %struct.parseCtx, ptr %66, i32 0, i32 0
  %68 = load ptr, ptr %67, align 8
  %69 = load ptr, ptr %3, align 8
  %70 = getelementptr inbounds nuw %struct.parseCtx, ptr %69, i32 0, i32 4
  %71 = load i32, ptr %70, align 8
  %72 = zext i32 %71 to i64
  %73 = getelementptr i8, ptr %68, i64 %72
  %74 = load i8, ptr %73, align 1
  %75 = sext i8 %74 to i32
  %76 = icmp eq i32 %75, 91
  br i1 %76, label %137, label %77

77:                                               ; preds = %65
  %78 = load ptr, ptr %3, align 8
  %79 = getelementptr inbounds nuw %struct.parseCtx, ptr %78, i32 0, i32 0
  %80 = load ptr, ptr %79, align 8
  %81 = load ptr, ptr %3, align 8
  %82 = getelementptr inbounds nuw %struct.parseCtx, ptr %81, i32 0, i32 4
  %83 = load i32, ptr %82, align 8
  %84 = zext i32 %83 to i64
  %85 = getelementptr i8, ptr %80, i64 %84
  %86 = load i8, ptr %85, align 1
  %87 = sext i8 %86 to i32
  %88 = icmp eq i32 %87, 93
  br i1 %88, label %137, label %89

89:                                               ; preds = %77
  %90 = load ptr, ptr %3, align 8
  %91 = getelementptr inbounds nuw %struct.parseCtx, ptr %90, i32 0, i32 0
  %92 = load ptr, ptr %91, align 8
  %93 = load ptr, ptr %3, align 8
  %94 = getelementptr inbounds nuw %struct.parseCtx, ptr %93, i32 0, i32 4
  %95 = load i32, ptr %94, align 8
  %96 = zext i32 %95 to i64
  %97 = getelementptr i8, ptr %92, i64 %96
  %98 = load i8, ptr %97, align 1
  %99 = sext i8 %98 to i32
  %100 = icmp eq i32 %99, 123
  br i1 %100, label %137, label %101

101:                                              ; preds = %89
  %102 = load ptr, ptr %3, align 8
  %103 = getelementptr inbounds nuw %struct.parseCtx, ptr %102, i32 0, i32 0
  %104 = load ptr, ptr %103, align 8
  %105 = load ptr, ptr %3, align 8
  %106 = getelementptr inbounds nuw %struct.parseCtx, ptr %105, i32 0, i32 4
  %107 = load i32, ptr %106, align 8
  %108 = zext i32 %107 to i64
  %109 = getelementptr i8, ptr %104, i64 %108
  %110 = load i8, ptr %109, align 1
  %111 = sext i8 %110 to i32
  %112 = icmp eq i32 %111, 125
  br i1 %112, label %137, label %113

113:                                              ; preds = %101
  %114 = load ptr, ptr %3, align 8
  %115 = getelementptr inbounds nuw %struct.parseCtx, ptr %114, i32 0, i32 0
  %116 = load ptr, ptr %115, align 8
  %117 = load ptr, ptr %3, align 8
  %118 = getelementptr inbounds nuw %struct.parseCtx, ptr %117, i32 0, i32 4
  %119 = load i32, ptr %118, align 8
  %120 = zext i32 %119 to i64
  %121 = getelementptr i8, ptr %116, i64 %120
  %122 = load i8, ptr %121, align 1
  %123 = sext i8 %122 to i32
  %124 = icmp eq i32 %123, 92
  br i1 %124, label %137, label %125

125:                                              ; preds = %113
  %126 = load ptr, ptr %3, align 8
  %127 = getelementptr inbounds nuw %struct.parseCtx, ptr %126, i32 0, i32 0
  %128 = load ptr, ptr %127, align 8
  %129 = load ptr, ptr %3, align 8
  %130 = getelementptr inbounds nuw %struct.parseCtx, ptr %129, i32 0, i32 4
  %131 = load i32, ptr %130, align 8
  %132 = zext i32 %131 to i64
  %133 = getelementptr i8, ptr %128, i64 %132
  %134 = load i8, ptr %133, align 1
  %135 = sext i8 %134 to i32
  %136 = icmp eq i32 %135, 124
  br i1 %136, label %137, label %156

137:                                              ; preds = %125, %113, %101, %89, %77, %65, %53, %37
  %138 = load ptr, ptr %3, align 8
  %139 = getelementptr inbounds nuw %struct.parseCtx, ptr %138, i32 0, i32 1
  %140 = load ptr, ptr %139, align 8
  %141 = icmp ne ptr %140, null
  br i1 %141, label %142, label %152

142:                                              ; preds = %137
  %143 = load ptr, ptr %3, align 8
  %144 = getelementptr inbounds nuw %struct.parseCtx, ptr %143, i32 0, i32 5
  %145 = load i32, ptr %144, align 4
  %146 = add i32 %145, 1
  %147 = load ptr, ptr %3, align 8
  %148 = getelementptr inbounds nuw %struct.parseCtx, ptr %147, i32 0, i32 2
  %149 = load i32, ptr %148, align 8
  %150 = icmp ule i32 %146, %149
  %151 = select i1 %150, i32 0, i32 1
  br label %153

152:                                              ; preds = %137
  br label %153

153:                                              ; preds = %152, %142
  %154 = phi i32 [ %151, %142 ], [ 0, %152 ]
  %155 = icmp ne i32 %154, 0
  br i1 %155, label %156, label %157

156:                                              ; preds = %153, %125
  store i8 1, ptr %2, align 1
  store i32 1, ptr %5, align 4
  br label %256

157:                                              ; preds = %153
  %158 = load ptr, ptr %3, align 8
  %159 = getelementptr inbounds nuw %struct.parseCtx, ptr %158, i32 0, i32 1
  %160 = load ptr, ptr %159, align 8
  %161 = icmp ne ptr %160, null
  br i1 %161, label %162, label %181

162:                                              ; preds = %157
  %163 = load ptr, ptr %3, align 8
  %164 = getelementptr inbounds nuw %struct.parseCtx, ptr %163, i32 0, i32 0
  %165 = load ptr, ptr %164, align 8
  %166 = load ptr, ptr %3, align 8
  %167 = getelementptr inbounds nuw %struct.parseCtx, ptr %166, i32 0, i32 4
  %168 = load i32, ptr %167, align 8
  %169 = zext i32 %168 to i64
  %170 = getelementptr i8, ptr %165, i64 %169
  %171 = load i8, ptr %170, align 1
  %172 = load ptr, ptr %3, align 8
  %173 = getelementptr inbounds nuw %struct.parseCtx, ptr %172, i32 0, i32 1
  %174 = load ptr, ptr %173, align 8
  %175 = load ptr, ptr %3, align 8
  %176 = getelementptr inbounds nuw %struct.parseCtx, ptr %175, i32 0, i32 5
  %177 = load i32, ptr %176, align 4
  %178 = add i32 %177, 1
  store i32 %178, ptr %176, align 4
  %179 = zext i32 %177 to i64
  %180 = getelementptr i8, ptr %174, i64 %179
  store i8 %171, ptr %180, align 1
  br label %186

181:                                              ; preds = %157
  %182 = load ptr, ptr %3, align 8
  %183 = getelementptr inbounds nuw %struct.parseCtx, ptr %182, i32 0, i32 5
  %184 = load i32, ptr %183, align 4
  %185 = add i32 %184, 1
  store i32 %185, ptr %183, align 4
  br label %186

186:                                              ; preds = %181, %162
  %187 = load ptr, ptr %3, align 8
  %188 = getelementptr inbounds nuw %struct.parseCtx, ptr %187, i32 0, i32 4
  %189 = load i32, ptr %188, align 8
  %190 = add i32 %189, 1
  store i32 %190, ptr %188, align 8
  br label %254

191:                                              ; preds = %33
  %192 = load i8, ptr %4, align 1
  %193 = zext i8 %192 to i32
  %194 = icmp sge i32 %193, 32
  br i1 %194, label %195, label %252

195:                                              ; preds = %191
  %196 = load i8, ptr %4, align 1
  %197 = zext i8 %196 to i32
  %198 = icmp sle i32 %197, 126
  br i1 %198, label %199, label %252

199:                                              ; preds = %195
  %200 = load ptr, ptr %3, align 8
  %201 = getelementptr inbounds nuw %struct.parseCtx, ptr %200, i32 0, i32 1
  %202 = load ptr, ptr %201, align 8
  %203 = icmp ne ptr %202, null
  br i1 %203, label %204, label %214

204:                                              ; preds = %199
  %205 = load ptr, ptr %3, align 8
  %206 = getelementptr inbounds nuw %struct.parseCtx, ptr %205, i32 0, i32 5
  %207 = load i32, ptr %206, align 4
  %208 = add i32 %207, 1
  %209 = load ptr, ptr %3, align 8
  %210 = getelementptr inbounds nuw %struct.parseCtx, ptr %209, i32 0, i32 2
  %211 = load i32, ptr %210, align 8
  %212 = icmp ule i32 %208, %211
  %213 = select i1 %212, i32 0, i32 1
  br label %215

214:                                              ; preds = %199
  br label %215

215:                                              ; preds = %214, %204
  %216 = phi i32 [ %213, %204 ], [ 0, %214 ]
  %217 = icmp eq i32 %216, 0
  br i1 %217, label %218, label %252

218:                                              ; preds = %215
  %219 = load ptr, ptr %3, align 8
  %220 = getelementptr inbounds nuw %struct.parseCtx, ptr %219, i32 0, i32 1
  %221 = load ptr, ptr %220, align 8
  %222 = icmp ne ptr %221, null
  br i1 %222, label %223, label %242

223:                                              ; preds = %218
  %224 = load ptr, ptr %3, align 8
  %225 = getelementptr inbounds nuw %struct.parseCtx, ptr %224, i32 0, i32 0
  %226 = load ptr, ptr %225, align 8
  %227 = load ptr, ptr %3, align 8
  %228 = getelementptr inbounds nuw %struct.parseCtx, ptr %227, i32 0, i32 4
  %229 = load i32, ptr %228, align 8
  %230 = zext i32 %229 to i64
  %231 = getelementptr i8, ptr %226, i64 %230
  %232 = load i8, ptr %231, align 1
  %233 = load ptr, ptr %3, align 8
  %234 = getelementptr inbounds nuw %struct.parseCtx, ptr %233, i32 0, i32 1
  %235 = load ptr, ptr %234, align 8
  %236 = load ptr, ptr %3, align 8
  %237 = getelementptr inbounds nuw %struct.parseCtx, ptr %236, i32 0, i32 5
  %238 = load i32, ptr %237, align 4
  %239 = add i32 %238, 1
  store i32 %239, ptr %237, align 4
  %240 = zext i32 %238 to i64
  %241 = getelementptr i8, ptr %235, i64 %240
  store i8 %232, ptr %241, align 1
  br label %247

242:                                              ; preds = %218
  %243 = load ptr, ptr %3, align 8
  %244 = getelementptr inbounds nuw %struct.parseCtx, ptr %243, i32 0, i32 5
  %245 = load i32, ptr %244, align 4
  %246 = add i32 %245, 1
  store i32 %246, ptr %244, align 4
  br label %247

247:                                              ; preds = %242, %223
  %248 = load ptr, ptr %3, align 8
  %249 = getelementptr inbounds nuw %struct.parseCtx, ptr %248, i32 0, i32 4
  %250 = load i32, ptr %249, align 8
  %251 = add i32 %250, 1
  store i32 %251, ptr %249, align 8
  br label %253

252:                                              ; preds = %215, %195, %191
  store i8 1, ptr %2, align 1
  store i32 1, ptr %5, align 4
  br label %256

253:                                              ; preds = %247
  br label %254

254:                                              ; preds = %253, %186
  br label %255

255:                                              ; preds = %254
  store i32 0, ptr %5, align 4
  br label %256

256:                                              ; preds = %255, %252, %156, %32
  call void @llvm.lifetime.end.p0(i64 1, ptr %4) #19
  %257 = load i32, ptr %5, align 4
  switch i32 %257, label %262 [
    i32 0, label %258
    i32 3, label %259
    i32 1, label %260
  ]

258:                                              ; preds = %256
  br label %6, !llvm.loop !22

259:                                              ; preds = %256, %6
  store i8 0, ptr %2, align 1
  br label %260

260:                                              ; preds = %259, %256
  %261 = load i8, ptr %2, align 1
  ret i8 %261

262:                                              ; preds = %256
  unreachable
}