; Function Attrs: nofree norecurse nosync nounwind null_pointer_is_valid sspstrong memory(readwrite, inaccessiblemem: none) uwtable
define internal fastcc zeroext range(i8 0, 2) i8 @parseStringField(ptr noundef captures(none) %0) unnamed_addr #12 {
  %2 = getelementptr inbounds nuw i8, ptr %0, i64 28
  %3 = getelementptr inbounds nuw i8, ptr %0, i64 24
  %4 = getelementptr inbounds nuw i8, ptr %0, i64 20
  %5 = load i32, ptr %3, align 8
  %6 = load i32, ptr %4, align 4
  %7 = add i32 %6, -1
  %8 = icmp ult i32 %5, %7
  br i1 %8, label %.lr.ph, label %.thread

.lr.ph:                                           ; preds = %1
  %9 = getelementptr inbounds nuw i8, ptr %0, i64 8
  %10 = getelementptr inbounds nuw i8, ptr %0, i64 16
  br label %11

11:                                               ; preds = %.lr.ph, %42
  %12 = phi i32 [ %5, %.lr.ph ], [ %storemerge, %42 ]
  %13 = load ptr, ptr %0, align 8
  %14 = zext i32 %12 to i64
  %15 = getelementptr i8, ptr %13, i64 %14
  %16 = load i8, ptr %15, align 1
  switch i8 %16, label %31 [
    i8 93, label %.thread
    i8 40, label %.thread
    i8 92, label %17
  ]

17:                                               ; preds = %11
  %18 = add nuw i32 %12, 1
  store i32 %18, ptr %3, align 8
  %19 = zext i32 %18 to i64
  %20 = getelementptr i8, ptr %13, i64 %19
  %21 = load i8, ptr %20, align 1
  switch i8 %21, label %.thread [
    i8 40, label %22
    i8 41, label %22
    i8 91, label %22
    i8 93, label %22
    i8 123, label %22
    i8 125, label %22
    i8 92, label %22
    i8 124, label %22
  ]

22:                                               ; preds = %17, %17, %17, %17, %17, %17, %17, %17
  %23 = load ptr, ptr %9, align 8
  %.not60 = icmp eq ptr %23, null
  %24 = load i32, ptr %2, align 4
  %25 = add i32 %24, 1
  br i1 %.not60, label %30, label %26

26:                                               ; preds = %22
  %27 = load i32, ptr %10, align 8
  %.not61.not = icmp ugt i32 %25, %27
  br i1 %.not61.not, label %.thread, label %.critedge

.critedge:                                        ; preds = %26
  store i32 %25, ptr %2, align 4
  %28 = zext i32 %24 to i64
  %29 = getelementptr i8, ptr %23, i64 %28
  store i8 %21, ptr %29, align 1
  br label %42

30:                                               ; preds = %22
  store i32 %25, ptr %2, align 4
  br label %42

31:                                               ; preds = %11
  %32 = add i8 %16, -32
  %or.cond5 = icmp ult i8 %32, 95
  br i1 %or.cond5, label %33, label %.thread

33:                                               ; preds = %31
  %34 = load ptr, ptr %9, align 8
  %.not = icmp eq ptr %34, null
  %35 = load i32, ptr %2, align 4
  %36 = add i32 %35, 1
  br i1 %.not, label %41, label %37

37:                                               ; preds = %33
  %38 = load i32, ptr %10, align 8
  %.not58.not = icmp ugt i32 %36, %38
  br i1 %.not58.not, label %.thread, label %.critedge65

.critedge65:                                      ; preds = %37
  store i32 %36, ptr %2, align 4
  %39 = zext i32 %35 to i64
  %40 = getelementptr i8, ptr %34, i64 %39
  store i8 %16, ptr %40, align 1
  br label %42

41:                                               ; preds = %33
  store i32 %36, ptr %2, align 4
  br label %42

42:                                               ; preds = %30, %.critedge, %41, %.critedge65
  %storemerge.in = load i32, ptr %3, align 8
  %storemerge = add i32 %storemerge.in, 1
  store i32 %storemerge, ptr %3, align 8
  %43 = load i32, ptr %4, align 4
  %44 = add i32 %43, -1
  %45 = icmp ult i32 %storemerge, %44
  br i1 %45, label %11, label %.thread

.thread:                                          ; preds = %42, %17, %26, %37, %31, %11, %11, %1
  %.2 = phi i8 [ 0, %1 ], [ 0, %11 ], [ 0, %11 ], [ 1, %31 ], [ 1, %37 ], [ 1, %26 ], [ 1, %17 ], [ 0, %42 ]
  ret i8 %.2
}